; Function Attrs: mustprogress uwtable
define void @_ZN3gmx6Update13update_coordsERK10t_inputreclibNS_8ArrayRefIK12ParticleTypeEENS4_IKfEENS4_IKNS_11BasicVectorIfEEEEP7t_stateRKNS_19ArrayRefWithPaddingISC_EEP8t_fcdataPK14gmx_ekindata_tRKNS_13MultiDimArrayISt5arrayIfLm9EENS_7extentsIJLl3ELl3EEEENS_12layout_rightEEEiPK9t_commrecb(ptr nocapture noundef nonnull readonly align 8 dereferenceable(8) %0, ptr noundef nonnull align 8 dereferenceable(856) %1, i64 noundef %2, i32 noundef %3, i1 noundef zeroext %4, ptr nocapture noundef readonly byval(%"class.gmx::ArrayRef.97") align 8 %5, ptr nocapture noundef readonly byval(%"class.gmx::ArrayRef.100") align 8 %6, ptr nocapture noundef readonly byval(%"class.gmx::ArrayRef.103") align 8 %7, ptr noundef %8, ptr noundef nonnull align 8 dereferenceable(24) %9, ptr nocapture noundef readonly %10, ptr noundef %11, ptr noundef nonnull align 8 dereferenceable(56) %12, i32 noundef %13, ptr noundef %14, i1 noundef zeroext %15) local_unnamed_addr #0 align 2 {
  %17 = alloca %"class.gmx::ArrayRef.97", align 8
  %18 = alloca %"class.gmx::ArrayRef.100", align 8
  %19 = alloca %"class.gmx::ArrayRef.103", align 8
  %20 = load ptr, ptr %0, align 8
  %21 = load ptr, ptr %5, align 8
  store ptr %21, ptr %17, align 8
  %22 = getelementptr inbounds i8, ptr %17, i64 8
  %23 = getelementptr inbounds i8, ptr %5, i64 8
  %24 = load ptr, ptr %23, align 8
  %25 = ptrtoint ptr %24 to i64
  %26 = ptrtoint ptr %21 to i64
  %27 = sub i64 %25, %26
  %28 = getelementptr inbounds i8, ptr %21, i64 %27
  store ptr %28, ptr %22, align 8
  %29 = load ptr, ptr %6, align 8
  store ptr %29, ptr %18, align 8
  %30 = getelementptr inbounds i8, ptr %18, i64 8
  %31 = getelementptr inbounds i8, ptr %6, i64 8
  %32 = load ptr, ptr %31, align 8
  %33 = ptrtoint ptr %32 to i64
  %34 = ptrtoint ptr %29 to i64
  %35 = sub i64 %33, %34
  %36 = getelementptr inbounds i8, ptr %29, i64 %35
  store ptr %36, ptr %30, align 8
  %37 = load ptr, ptr %7, align 8
  store ptr %37, ptr %19, align 8
  %38 = getelementptr inbounds i8, ptr %19, i64 8
  %39 = getelementptr inbounds i8, ptr %7, i64 8
  %40 = load ptr, ptr %39, align 8
  %41 = ptrtoint ptr %40 to i64
  %42 = ptrtoint ptr %37 to i64
  %43 = sub i64 %41, %42
  %44 = getelementptr inbounds i8, ptr %37, i64 %43
  store ptr %44, ptr %38, align 8
  tail call void @_ZN3gmx6Update4Impl13update_coordsERK10t_inputreclibNS_8ArrayRefIK12ParticleTypeEENS5_IKfEENS5_IKNS_11BasicVectorIfEEEEP7t_stateRKNS_19ArrayRefWithPaddingISD_EEP8t_fcdataPK14gmx_ekindata_tRKNS_13MultiDimArrayISt5arrayIfLm9EENS_7extentsIJLl3ELl3EEEENS_12layout_rightEEEiPK9t_commrecb(ptr noundef nonnull align 8 dereferenceable(232) %20, ptr noundef nonnull align 8 dereferenceable(856) %1, i64 noundef %2, i32 noundef %3, i1 noundef zeroext %4, ptr noundef nonnull byval(%"class.gmx::ArrayRef.97") align 8 %17, ptr noundef nonnull byval(%"class.gmx::ArrayRef.100") align 8 %18, ptr noundef nonnull byval(%"class.gmx::ArrayRef.103") align 8 %19, ptr noundef %8, ptr noundef nonnull align 8 dereferenceable(24) %9, ptr noundef %10, ptr noundef %11, ptr noundef nonnull align 8 dereferenceable(56) %12, i32 noundef %13, ptr noundef %14, i1 noundef zeroext %15)
  ret void
}